target datalayout = "e-m:e-p270:32:32-p271:32:32-p272:64:64-i64:64-i128:128-f80:128-n8:16:32:64-S128"
target triple = "x86_64-pc-linux-gnu"

%struct.Type_ = type { i32, ptr, ptr, ptr, %union.anon, ptr, ptr, %union.anon.1 }
%union.anon = type { ptr }
%union.anon.1 = type { %struct.TypeFunction }
%struct.TypeFunction = type { ptr, ptr, ptr }
%union.SourceSpan = type { i64 }
%struct.Decl_ = type { ptr, ptr, %union.SourceSpan, i64, %union.anon.3, i32, %union.anon.4, i64, ptr, ptr, ptr, %union.anon.5 }
%union.anon.3 = type { ptr }
%union.anon.4 = type { i16 }
%union.anon.5 = type { %struct.FuncDecl }
%struct.FuncDecl = type { i32, [4 x i8], %struct.Signature_, i32, i32, %union.anon.12 }
%struct.Signature_ = type <{ %struct.CalleeAttributes, i16, i8, i32, i32, [4 x i8], ptr }>
%struct.CalleeAttributes = type { i8 }
%union.anon.12 = type { %struct.anon.13 }
%struct.anon.13 = type { i16, %union.anon.14 }
%union.anon.14 = type { ptr }
%struct.TypeArray = type { ptr, i32 }
%struct.anon.6 = type { ptr, ptr, %union.anon.7 }
%union.anon.7 = type { %struct.BitStructDecl }
%struct.BitStructDecl = type { ptr, ptr, i8 }
%struct.TypeInfo_ = type { i16, ptr, %union.SourceSpan, %union.anon.54 }
%union.anon.54 = type { %struct.anon.55 }
%struct.anon.55 = type { ptr, ptr }

@type_ichar = dso_local global ptr getelementptr (i8, ptr @t, i64 160), align 8
@type_short = dso_local global ptr getelementptr (i8, ptr @t, i64 240), align 8
@type_int = dso_local global ptr getelementptr (i8, ptr @t, i64 320), align 8
@type_long = dso_local global ptr getelementptr (i8, ptr @t, i64 400), align 8
@type_i128 = dso_local global ptr getelementptr (i8, ptr @t, i64 480), align 8
@.str = private unnamed_addr constant [36 x i8] c"FATAL ERROR %s -> in %s @ in %s:%d \00", align 1
@.str.1 = private unnamed_addr constant [19 x i8] c"Illegal bitsize %d\00", align 1
@__func__.type_int_signed_by_bitsize = private unnamed_addr constant [27 x i8] c"type_int_signed_by_bitsize\00", align 1
@.str.2 = private unnamed_addr constant [106 x i8] c"generated/home/dtcxzyw/WorkSpace/Projects/compilers/llvm-opt-benchmark/bench/c3c/c3c/src/compiler/types.c\00", align 1
@.str.17 = private unnamed_addr constant [22 x i8] c"Should be unreachable\00", align 1
@__func__.type_flatten = private unnamed_addr constant [13 x i8] c"type_flatten\00", align 1
@.str.54 = private unnamed_addr constant [118 x i8] c"generated/home/dtcxzyw/WorkSpace/Projects/compilers/llvm-opt-benchmark/bench/c3c/c3c/src/compiler/compiler_internal.h\00", align 1

; Function Attrs: nounwind uwtable
define dso_local ptr @type_get_vector(ptr noundef %0, i32 noundef %1) #0 {
  %3 = alloca ptr, align 8
  %4 = alloca i32, align 4
  store ptr %0, ptr %3, align 8
  store i32 %1, ptr %4, align 4
  %5 = load ptr, ptr %3, align 8
  %6 = load i32, ptr %4, align 4
  %7 = call ptr @type_create_array(ptr noundef %5, i32 noundef %6, i1 noundef zeroext true, i1 noundef zeroext false)
  ret ptr %7
}

; Function Attrs: nounwind uwtable
define dso_local ptr @type_int_signed_by_bitsize(i64 noundef %0) #0 {
  %2 = alloca ptr, align 8
  %3 = alloca i64, align 8
  store i64 %0, ptr %3, align 8
  %4 = load i64, ptr %3, align 8
  switch i64 %4, label %15 [
    i64 8, label %5
    i64 16, label %7
    i64 32, label %9
    i64 64, label %11
    i64 128, label %13
  ]

5:                                                ; preds = %1
  %6 = load ptr, ptr @type_ichar, align 8
  store ptr %6, ptr %2, align 8
  br label %19

7:                                                ; preds = %1
  %8 = load ptr, ptr @type_short, align 8
  store ptr %8, ptr %2, align 8
  br label %19

9:                                                ; preds = %1
  %10 = load ptr, ptr @type_int, align 8
  store ptr %10, ptr %2, align 8
  br label %19

11:                                               ; preds = %1
  %12 = load ptr, ptr @type_long, align 8
  store ptr %12, ptr %2, align 8
  br label %19

13:                                               ; preds = %1
  %14 = load ptr, ptr @type_i128, align 8
  store ptr %14, ptr %2, align 8
  br label %19

15:                                               ; preds = %1
  br label %16

16:                                               ; preds = %15
  %17 = load i64, ptr %3, align 8
  call void (ptr, ...) @error_exit(ptr noundef @.str, ptr noundef @.str.1, ptr noundef @__func__.type_int_signed_by_bitsize, ptr noundef @.str.2, i32 noundef 83, i64 noundef %17) #7
  unreachable

18:                                               ; No predecessors!
  br label %19

19:                                               ; preds = %18, %13, %11, %9, %7, %5
  %20 = load ptr, ptr %2, align 8
  ret ptr %20
}

; Function Attrs: nounwind uwtable
define internal ptr @type_flatten(ptr noundef %0) #0 {
  %2 = alloca ptr, align 8
  store ptr %0, ptr %2, align 8
  br label %3

3:                                                ; preds = %28, %1
  %4 = load ptr, ptr %2, align 8
  %5 = getelementptr inbounds %struct.Type_, ptr %4, i32 0, i32 1
  %6 = load ptr, ptr %5, align 8
  store ptr %6, ptr %2, align 8
  %7 = load ptr, ptr %2, align 8
  %8 = getelementptr inbounds %struct.Type_, ptr %7, i32 0, i32 0
  %9 = load i32, ptr %8, align 8
  switch i32 %9, label %26 [
    i32 32, label %10
    i32 40, label %19
    i32 31, label %23
  ]

10:                                               ; preds = %3
  %11 = load ptr, ptr %2, align 8
  %12 = getelementptr inbounds %struct.Type_, ptr %11, i32 0, i32 7
  %13 = load ptr, ptr %12, align 8
  %14 = getelementptr inbounds %struct.Decl_, ptr %13, i32 0, i32 11
  %15 = getelementptr inbounds %struct.anon.6, ptr %14, i32 0, i32 2
  %16 = load ptr, ptr %15, align 8
  %17 = getelementptr inbounds %struct.TypeInfo_, ptr %16, i32 0, i32 1
  %18 = load ptr, ptr %17, align 8
  store ptr %18, ptr %2, align 8
  br label %28

19:                                               ; preds = %3
  %20 = load ptr, ptr %2, align 8
  %21 = getelementptr inbounds %struct.Type_, ptr %20, i32 0, i32 7
  %22 = load ptr, ptr %21, align 8
  store ptr %22, ptr %2, align 8
  br label %28

23:                                               ; preds = %3
  br label %24

24:                                               ; preds = %23
  call void (ptr, ...) @error_exit(ptr noundef @.str, ptr noundef @.str.17, ptr noundef @__func__.type_flatten, ptr noundef @.str.54, i32 noundef 2984) #7
  unreachable

25:                                               ; No predecessors!
  br label %26

26:                                               ; preds = %25, %3
  %27 = load ptr, ptr %2, align 8
  ret ptr %27

28:                                               ; preds = %19, %10
  br label %3
}

; Function Attrs: nounwind uwtable
define dso_local ptr @type_get_vector_bool(ptr noundef %0) #0 {
  %2 = alloca ptr, align 8
  %3 = alloca ptr, align 8
  %4 = alloca i64, align 8
  store ptr %0, ptr %2, align 8
  %5 = load ptr, ptr %2, align 8
  %6 = call ptr @type_flatten(ptr noundef %5)
  store ptr %6, ptr %3, align 8
  %7 = load ptr, ptr %3, align 8
  %8 = getelementptr inbounds %struct.Type_, ptr %7, i32 0, i32 7
  %9 = getelementptr inbounds %struct.TypeArray, ptr %8, i32 0, i32 0
  %10 = load ptr, ptr %9, align 8
  %11 = call i32 @type_size(ptr noundef %10)
  %12 = zext i32 %11 to i64
  store i64 %12, ptr %4, align 8
  %13 = load i64, ptr %4, align 8
  %14 = trunc i64 %13 to i32
  %15 = mul i32 %14, 8
  %16 = zext i32 %15 to i64
  %17 = call ptr @type_int_signed_by_bitsize(i64 noundef %16)
  %18 = load ptr, ptr %2, align 8
  %19 = getelementptr inbounds %struct.Type_, ptr %18, i32 0, i32 7
  %20 = getelementptr inbounds %struct.TypeArray, ptr %19, i32 0, i32 1
  %21 = load i32, ptr %20, align 8
  %22 = call ptr @type_get_vector(ptr noundef %17, i32 noundef %21)
  ret ptr %22
}