; Function Attrs: nounwind uwtable
define dso_local noundef ptr @type_get_vector_bool(ptr nocapture noundef readonly %0) local_unnamed_addr #0 {
  br label %2

2:                                                ; preds = %15, %1
  %.0.i = phi ptr [ %0, %1 ], [ %.1.i, %15 ]
  %3 = getelementptr inbounds i8, ptr %.0.i, i64 8
  %4 = load ptr, ptr %3, align 8
  %5 = load i32, ptr %4, align 8
  switch i32 %5, label %type_flatten.exit [
    i32 32, label %6
    i32 40, label %12
    i32 31, label %14
  ]

6:                                                ; preds = %2
  %7 = getelementptr inbounds i8, ptr %4, i64 56
  %8 = load ptr, ptr %7, align 8
  %9 = getelementptr inbounds i8, ptr %8, i64 96
  %10 = load ptr, ptr %9, align 8
  %11 = getelementptr inbounds i8, ptr %10, i64 8
  br label %15

12:                                               ; preds = %2
  %13 = getelementptr inbounds i8, ptr %4, i64 56
  br label %15

14:                                               ; preds = %2
  tail call void (ptr, ...) @error_exit(ptr noundef nonnull @.str, ptr noundef nonnull @.str.17, ptr noundef nonnull @__func__.type_flatten, ptr noundef nonnull @.str.54, i32 noundef 2984) #13
  unreachable

15:                                               ; preds = %12, %6
  %.1.in.i = phi ptr [ %13, %12 ], [ %11, %6 ]
  %.1.i = load ptr, ptr %.1.in.i, align 8
  br label %2

type_flatten.exit:                                ; preds = %2
  %16 = getelementptr inbounds i8, ptr %4, i64 56
  %17 = load ptr, ptr %16, align 8
  %18 = tail call i32 @type_size(ptr noundef %17)
  %19 = shl i32 %18, 3
  switch i32 %19, label %24 [
    i32 8, label %type_int_signed_by_bitsize.exit
    i32 16, label %20
    i32 32, label %21
    i32 64, label %22
    i32 128, label %23
  ]

20:                                               ; preds = %type_flatten.exit
  br label %type_int_signed_by_bitsize.exit

21:                                               ; preds = %type_flatten.exit
  br label %type_int_signed_by_bitsize.exit

22:                                               ; preds = %type_flatten.exit
  br label %type_int_signed_by_bitsize.exit

23:                                               ; preds = %type_flatten.exit
  br label %type_int_signed_by_bitsize.exit

24:                                               ; preds = %type_flatten.exit
  %25 = zext i32 %19 to i64
  tail call void (ptr, ...) @error_exit(ptr noundef nonnull @.str, ptr noundef nonnull @.str.1, ptr noundef nonnull @__func__.type_int_signed_by_bitsize, ptr noundef nonnull @.str.2, i32 noundef 83, i64 noundef %25) #13
  unreachable

type_int_signed_by_bitsize.exit:                  ; preds = %type_flatten.exit, %20, %21, %22, %23
  %.0.in.i = phi ptr [ @type_i128, %23 ], [ @type_long, %22 ], [ @type_int, %21 ], [ @type_short, %20 ], [ @type_ichar, %type_flatten.exit ]
  %.0.i3 = load ptr, ptr %.0.in.i, align 8
  %26 = getelementptr inbounds i8, ptr %0, i64 64
  %27 = load i32, ptr %26, align 8
  %28 = tail call fastcc noundef ptr @type_create_array(ptr noundef %.0.i3, i32 noundef %27, i1 noundef zeroext true, i1 noundef zeroext false)
  ret ptr %28
}